target datalayout = "e-m:e-p270:32:32-p271:32:32-p272:64:64-i64:64-i128:128-f80:128-n8:16:32:64-S128"
target triple = "x86_64-pc-linux-gnu"

%struct.built_in_curve = type { i32, [8 x i8], i8, ptr, ptr }
%struct.curve_data = type { ptr, i8, i8, [0 x i8] }

@built_in_curve_scalar_field_monts = internal global ptr null, align 8

; Function Attrs: nounwind uwtable
define internal void @built_in_curve_scalar_field_monts_init() #1 {
  %1 = alloca i32, align 4
  %2 = alloca i32, align 4
  %3 = alloca ptr, align 8
  %4 = alloca ptr, align 8
  %5 = alloca ptr, align 8
  %6 = alloca i32, align 4
  %7 = alloca ptr, align 8
  %8 = alloca i32, align 4
  %9 = alloca ptr, align 8
  call void @llvm.lifetime.start.p0(i64 4, ptr %1) #7
  store i32 0, ptr %1, align 4, !tbaa !33
  br label %10

10:                                               ; preds = %19, %0
  %11 = load i32, ptr %1, align 4, !tbaa !33
  %12 = zext i32 %11 to i64
  %13 = getelementptr inbounds nuw [5 x %struct.built_in_curve], ptr @OPENSSL_built_in_curves, i64 0, i64 %12
  %14 = getelementptr inbounds nuw %struct.built_in_curve, ptr %13, i32 0, i32 0
  %15 = load i32, ptr %14, align 16, !tbaa !34
  %16 = icmp eq i32 %15, 0
  br i1 %16, label %17, label %18

17:                                               ; preds = %10
  br label %22

18:                                               ; preds = %10
  br label %19

19:                                               ; preds = %18
  %20 = load i32, ptr %1, align 4, !tbaa !33
  %21 = add i32 %20, 1
  store i32 %21, ptr %1, align 4, !tbaa !33
  br label %10

22:                                               ; preds = %17
  %23 = load i32, ptr %1, align 4, !tbaa !33
  %24 = zext i32 %23 to i64
  %25 = mul i64 8, %24
  %26 = call noalias ptr @malloc(i64 noundef %25) #8
  store ptr %26, ptr @built_in_curve_scalar_field_monts, align 8, !tbaa !47
  %27 = load ptr, ptr @built_in_curve_scalar_field_monts, align 8, !tbaa !47
  %28 = icmp eq ptr %27, null
  br i1 %28, label %29, label %30

29:                                               ; preds = %22
  store i32 1, ptr %2, align 4
  br label %98

30:                                               ; preds = %22
  call void @llvm.lifetime.start.p0(i64 8, ptr %3) #7
  %31 = call ptr @BN_new()
  store ptr %31, ptr %3, align 8, !tbaa !22
  call void @llvm.lifetime.start.p0(i64 8, ptr %4) #7
  %32 = call ptr @BN_CTX_new()
  store ptr %32, ptr %4, align 8, !tbaa !24
  call void @llvm.lifetime.start.p0(i64 8, ptr %5) #7
  store ptr null, ptr %5, align 8, !tbaa !49
  %33 = load ptr, ptr %4, align 8, !tbaa !24
  %34 = icmp eq ptr %33, null
  br i1 %34, label %38, label %35

35:                                               ; preds = %30
  %36 = load ptr, ptr %3, align 8, !tbaa !22
  %37 = icmp eq ptr %36, null
  br i1 %37, label %38, label %39

38:                                               ; preds = %35, %30
  br label %92

39:                                               ; preds = %35
  store i32 0, ptr %6, align 4, !tbaa !33
  br label %40

40:                                               ; preds = %88, %39
  %41 = load i32, ptr %6, align 4, !tbaa !33
  %42 = load i32, ptr %1, align 4, !tbaa !33
  %43 = icmp ult i32 %41, %42
  br i1 %43, label %44, label %91

44:                                               ; preds = %40
  call void @llvm.lifetime.start.p0(i64 8, ptr %7) #7
  %45 = load i32, ptr %6, align 4, !tbaa !33
  %46 = zext i32 %45 to i64
  %47 = getelementptr inbounds nuw [5 x %struct.built_in_curve], ptr @OPENSSL_built_in_curves, i64 0, i64 %46
  %48 = getelementptr inbounds nuw %struct.built_in_curve, ptr %47, i32 0, i32 3
  %49 = load ptr, ptr %48, align 16, !tbaa !41
  store ptr %49, ptr %7, align 8, !tbaa !42
  call void @llvm.lifetime.start.p0(i64 4, ptr %8) #7
  %50 = load ptr, ptr %7, align 8, !tbaa !42
  %51 = getelementptr inbounds nuw %struct.curve_data, ptr %50, i32 0, i32 1
  %52 = load i8, ptr %51, align 8, !tbaa !43
  %53 = zext i8 %52 to i32
  store i32 %53, ptr %8, align 4, !tbaa !33
  call void @llvm.lifetime.start.p0(i64 8, ptr %9) #7
  %54 = load ptr, ptr %7, align 8, !tbaa !42
  %55 = getelementptr inbounds nuw %struct.curve_data, ptr %54, i32 0, i32 3
  %56 = getelementptr inbounds [0 x i8], ptr %55, i64 0, i64 0
  store ptr %56, ptr %9, align 8, !tbaa !44
  %57 = call ptr @BN_MONT_CTX_new()
  store ptr %57, ptr %5, align 8, !tbaa !49
  %58 = load ptr, ptr %5, align 8, !tbaa !49
  %59 = icmp eq ptr %58, null
  br i1 %59, label %60, label %61

60:                                               ; preds = %44
  store i32 5, ptr %2, align 4
  br label %85

61:                                               ; preds = %44
  %62 = load ptr, ptr %9, align 8, !tbaa !44
  %63 = load i32, ptr %8, align 4, !tbaa !33
  %64 = mul i32 5, %63
  %65 = zext i32 %64 to i64
  %66 = getelementptr inbounds nuw i8, ptr %62, i64 %65
  %67 = load i32, ptr %8, align 4, !tbaa !33
  %68 = zext i32 %67 to i64
  %69 = load ptr, ptr %3, align 8, !tbaa !22
  %70 = call ptr @BN_bin2bn(ptr noundef %66, i64 noundef %68, ptr noundef %69)
  %71 = icmp ne ptr %70, null
  br i1 %71, label %72, label %78

72:                                               ; preds = %61
  %73 = load ptr, ptr %5, align 8, !tbaa !49
  %74 = load ptr, ptr %3, align 8, !tbaa !22
  %75 = load ptr, ptr %4, align 8, !tbaa !24
  %76 = call i32 @BN_MONT_CTX_set(ptr noundef %73, ptr noundef %74, ptr noundef %75)
  %77 = icmp ne i32 %76, 0
  br i1 %77, label %79, label %78

78:                                               ; preds = %72, %61
  store i32 5, ptr %2, align 4
  br label %85

79:                                               ; preds = %72
  %80 = load ptr, ptr %5, align 8, !tbaa !49
  %81 = load ptr, ptr @built_in_curve_scalar_field_monts, align 8, !tbaa !47
  %82 = load i32, ptr %6, align 4, !tbaa !33
  %83 = zext i32 %82 to i64
  %84 = getelementptr inbounds nuw ptr, ptr %81, i64 %83
  store ptr %80, ptr %84, align 8, !tbaa !49
  store ptr null, ptr %5, align 8, !tbaa !49
  store i32 0, ptr %2, align 4
  br label %85

85:                                               ; preds = %78, %60, %79
  call void @llvm.lifetime.end.p0(i64 8, ptr %9) #7
  call void @llvm.lifetime.end.p0(i64 4, ptr %8) #7
  call void @llvm.lifetime.end.p0(i64 8, ptr %7) #7
  %86 = load i32, ptr %2, align 4
  switch i32 %86, label %101 [
    i32 0, label %87
    i32 5, label %92
  ]

87:                                               ; preds = %85
  br label %88

88:                                               ; preds = %87
  %89 = load i32, ptr %6, align 4, !tbaa !33
  %90 = add i32 %89, 1
  store i32 %90, ptr %6, align 4, !tbaa !33
  br label %40, !llvm.loop !64

91:                                               ; preds = %40
  br label %95

92:                                               ; preds = %85, %38
  %93 = load ptr, ptr %5, align 8, !tbaa !49
  call void @BN_MONT_CTX_free(ptr noundef %93)
  %94 = load ptr, ptr @built_in_curve_scalar_field_monts, align 8, !tbaa !47
  call void @free(ptr noundef %94) #7
  store ptr null, ptr @built_in_curve_scalar_field_monts, align 8, !tbaa !47
  br label %95

95:                                               ; preds = %92, %91
  %96 = load ptr, ptr %3, align 8, !tbaa !22
  call void @BN_free(ptr noundef %96)
  %97 = load ptr, ptr %4, align 8, !tbaa !24
  call void @BN_CTX_free(ptr noundef %97)
  call void @llvm.lifetime.end.p0(i64 8, ptr %5) #7
  call void @llvm.lifetime.end.p0(i64 8, ptr %4) #7
  call void @llvm.lifetime.end.p0(i64 8, ptr %3) #7
  store i32 0, ptr %2, align 4
  br label %98

98:                                               ; preds = %95, %29
  call void @llvm.lifetime.end.p0(i64 4, ptr %1) #7
  %99 = load i32, ptr %2, align 4
  switch i32 %99, label %101 [
    i32 0, label %100
    i32 1, label %100
  ]

100:                                              ; preds = %98, %98
  ret void

101:                                              ; preds = %98, %85
  unreachable
}