; Function Attrs: nounwind uwtable
define internal void @built_in_curve_scalar_field_monts_init() #1 {
  %1 = tail call noalias dereferenceable_or_null(32) ptr @malloc(i64 noundef 32) #12
  store ptr %1, ptr @built_in_curve_scalar_field_monts, align 8, !tbaa !33
  %2 = icmp eq ptr %1, null
  br i1 %2, label %26, label %3

3:                                                ; preds = %0
  %4 = tail call ptr @BN_new() #11
  %5 = tail call ptr @BN_CTX_new() #11
  %6 = icmp eq ptr %5, null
  %7 = icmp eq ptr %4, null
  %or.cond = select i1 %6, i1 true, i1 %7
  br i1 %or.cond, label %.thread, label %.lr.ph

.lr.ph:                                           ; preds = %3, %22
  %indvars.iv = phi i64 [ %indvars.iv.next, %22 ], [ 0, %3 ]
  %8 = getelementptr inbounds nuw [5 x %struct.built_in_curve], ptr @OPENSSL_built_in_curves, i64 0, i64 %indvars.iv, i32 3
  %9 = load ptr, ptr %8, align 16, !tbaa !30
  %10 = getelementptr inbounds nuw i8, ptr %9, i64 8
  %11 = load i8, ptr %10, align 8, !tbaa !31
  %12 = tail call ptr @BN_MONT_CTX_new() #11
  %13 = icmp eq ptr %12, null
  br i1 %13, label %.thread, label %14

14:                                               ; preds = %.lr.ph
  %15 = getelementptr inbounds nuw i8, ptr %9, i64 10
  %16 = zext i8 %11 to i64
  %17 = mul nuw nsw i64 %16, 5
  %18 = getelementptr inbounds nuw i8, ptr %15, i64 %17
  %19 = tail call ptr @BN_bin2bn(ptr noundef nonnull %18, i64 noundef %16, ptr noundef %4) #11
  %.not = icmp eq ptr %19, null
  br i1 %.not, label %.thread, label %20

20:                                               ; preds = %14
  %21 = tail call i32 @BN_MONT_CTX_set(ptr noundef nonnull %12, ptr noundef %4, ptr noundef %5) #11
  %.not32 = icmp eq i32 %21, 0
  br i1 %.not32, label %.thread, label %22

22:                                               ; preds = %20
  %23 = load ptr, ptr @built_in_curve_scalar_field_monts, align 8, !tbaa !33
  %24 = getelementptr inbounds nuw ptr, ptr %23, i64 %indvars.iv
  store ptr %12, ptr %24, align 8, !tbaa !35
  %indvars.iv.next = add nuw nsw i64 %indvars.iv, 1
  %exitcond.not = icmp eq i64 %indvars.iv.next, 4
  br i1 %exitcond.not, label %.loopexit, label %.lr.ph, !llvm.loop !48

.thread:                                          ; preds = %14, %20, %.lr.ph, %3
  %.026 = phi ptr [ null, %3 ], [ null, %.lr.ph ], [ %12, %20 ], [ %12, %14 ]
  tail call void @BN_MONT_CTX_free(ptr noundef %.026) #11
  %25 = load ptr, ptr @built_in_curve_scalar_field_monts, align 8, !tbaa !33
  tail call void @free(ptr noundef %25) #11
  store ptr null, ptr @built_in_curve_scalar_field_monts, align 8, !tbaa !33
  br label %.loopexit

.loopexit:                                        ; preds = %22, %.thread
  tail call void @BN_free(ptr noundef %4) #11
  tail call void @BN_CTX_free(ptr noundef %5) #11
  br label %26

26:                                               ; preds = %0, %.loopexit
  ret void
}